target datalayout = "e-m:e-p270:32:32-p271:32:32-p272:64:64-i64:64-i128:128-f80:128-n8:16:32:64-S128"
target triple = "x86_64-pc-linux-gnu"

%"class.llvm::DWARFAcceleratorTable" = type { ptr, %"class.llvm::DWARFDataExtractor", %"class.llvm::DataExtractor" }
%"class.llvm::DWARFDataExtractor" = type { %"class.llvm::DataExtractor.base", ptr, ptr }
%"class.llvm::DataExtractor.base" = type <{ %"class.llvm::StringRef", i8, i8 }>
%"class.llvm::StringRef" = type { ptr, i64 }
%"class.llvm::DataExtractor" = type <{ %"class.llvm::StringRef", i8, i8, [6 x i8] }>
%"struct.llvm::DWARFDebugNames::Header" = type { i64, i8, i16, i32, i32, i32, i32, i32, i32, i32, %"class.llvm::SmallString" }
%"class.llvm::SmallString" = type { %"class.llvm::SmallVector.73" }
%"class.llvm::SmallVector.73" = type { %"class.llvm::SmallVectorImpl.74", %"struct.llvm::SmallVectorStorage.78" }
%"class.llvm::SmallVectorImpl.74" = type { %"class.llvm::SmallVectorTemplateBase.75" }
%"class.llvm::SmallVectorTemplateBase.75" = type { %"class.llvm::SmallVectorTemplateCommon.76" }
%"class.llvm::SmallVectorTemplateCommon.76" = type { %"class.llvm::SmallVectorBase.77" }
%"class.llvm::SmallVectorBase.77" = type { ptr, i64, i64 }
%"struct.llvm::SmallVectorStorage.78" = type { [8 x i8] }
%"class.llvm::DWARFDebugNames::NameIndex" = type { %"class.llvm::DenseSet", %"struct.llvm::DWARFDebugNames::Header", ptr, i64, %"struct.llvm::DWARFDebugNames::DWARFDebugNamesOffsets" }
%"class.llvm::DenseSet" = type { %"class.llvm::detail::DenseSetImpl" }
%"class.llvm::detail::DenseSetImpl" = type { %"class.llvm::DenseMap" }
%"class.llvm::DenseMap" = type <{ ptr, i32, i32, i32, [4 x i8] }>
%"struct.llvm::DWARFDebugNames::DWARFDebugNamesOffsets" = type { i64, i64, i64, i64, i64, i64 }

; Function Attrs: mustprogress nounwind uwtable
define linkonce_odr hidden noundef zeroext i8 @_ZN4llvm5dwarf22getDwarfOffsetByteSizeENS0_11DwarfFormatE(i8 noundef zeroext %0) #0 comdat {
  %2 = alloca i8, align 1
  %3 = alloca i8, align 1
  store i8 %0, ptr %3, align 1
  %4 = load i8, ptr %3, align 1
  %5 = zext i8 %4 to i32
  switch i32 %5, label %8 [
    i32 0, label %6
    i32 1, label %7
  ]

6:                                                ; preds = %1
  store i8 4, ptr %2, align 1
  br label %9

7:                                                ; preds = %1
  store i8 8, ptr %2, align 1
  br label %9

8:                                                ; preds = %1
  unreachable

9:                                                ; preds = %7, %6
  %10 = load i8, ptr %2, align 1
  ret i8 %10
}

; Function Attrs: mustprogress nounwind uwtable
define dso_local noundef i64 @_ZNK4llvm15DWARFDebugNames9NameIndex16getLocalTUOffsetEj(ptr noundef nonnull align 8 dereferenceable(160) %0, i32 noundef %1) #0 align 2 {
  %3 = alloca ptr, align 8
  %4 = alloca i32, align 4
  %5 = alloca i32, align 4
  %6 = alloca i64, align 8
  store ptr %0, ptr %3, align 8
  store i32 %1, ptr %4, align 4
  %7 = load ptr, ptr %3, align 8
  %8 = getelementptr inbounds nuw %"class.llvm::DWARFDebugNames::NameIndex", ptr %7, i32 0, i32 1
  %9 = getelementptr inbounds nuw %"struct.llvm::DWARFDebugNames::Header", ptr %8, i32 0, i32 1
  %10 = load i8, ptr %9, align 8
  %11 = call noundef zeroext i8 @_ZN4llvm5dwarf22getDwarfOffsetByteSizeENS0_11DwarfFormatE(i8 noundef zeroext %10)
  %12 = zext i8 %11 to i32
  store i32 %12, ptr %5, align 4
  %13 = getelementptr inbounds nuw %"class.llvm::DWARFDebugNames::NameIndex", ptr %7, i32 0, i32 4
  %14 = getelementptr inbounds nuw %"struct.llvm::DWARFDebugNames::DWARFDebugNamesOffsets", ptr %13, i32 0, i32 0
  %15 = load i64, ptr %14, align 8
  %16 = load i32, ptr %5, align 4
  %17 = getelementptr inbounds nuw %"class.llvm::DWARFDebugNames::NameIndex", ptr %7, i32 0, i32 1
  %18 = getelementptr inbounds nuw %"struct.llvm::DWARFDebugNames::Header", ptr %17, i32 0, i32 3
  %19 = load i32, ptr %18, align 4
  %20 = load i32, ptr %4, align 4
  %21 = add i32 %19, %20
  %22 = mul i32 %16, %21
  %23 = zext i32 %22 to i64
  %24 = add i64 %15, %23
  store i64 %24, ptr %6, align 8
  %25 = getelementptr inbounds nuw %"class.llvm::DWARFDebugNames::NameIndex", ptr %7, i32 0, i32 2
  %26 = load ptr, ptr %25, align 8
  %27 = getelementptr inbounds nuw %"class.llvm::DWARFAcceleratorTable", ptr %26, i32 0, i32 1
  %28 = load i32, ptr %5, align 4
  %29 = call noundef i64 @_ZNK4llvm18DWARFDataExtractor17getRelocatedValueEjPmS1_PNS_5ErrorE(ptr noundef nonnull align 8 dereferenceable(40) %27, i32 noundef %28, ptr noundef %6, ptr noundef null, ptr noundef null)
  ret i64 %29
}