; Function Attrs: mustprogress nounwind uwtable
define dso_local noundef i64 @_ZNK4llvm15DWARFDebugNames9NameIndex16getLocalTUOffsetEj(ptr noundef nonnull readonly align 8 captures(none) dereferenceable(160) %0, i32 noundef %1) local_unnamed_addr #3 align 2 {
  %3 = alloca i64, align 8
  %4 = getelementptr inbounds nuw i8, ptr %0, i64 32
  %5 = load i8, ptr %4, align 8
  %switch.i = icmp eq i8 %5, 0
  %..i = select i1 %switch.i, i32 4, i32 8
  %6 = getelementptr inbounds nuw i8, ptr %0, i64 112
  %7 = load i64, ptr %6, align 8
  %8 = getelementptr inbounds nuw i8, ptr %0, i64 36
  %9 = load i32, ptr %8, align 4
  %10 = add i32 %9, %1
  %11 = select i1 %switch.i, i32 2, i32 3
  %12 = shl i32 %10, %11
  %13 = zext i32 %12 to i64
  %14 = add i64 %7, %13
  store i64 %14, ptr %3, align 8
  %15 = getelementptr inbounds nuw i8, ptr %0, i64 96
  %16 = load ptr, ptr %15, align 8
  %17 = getelementptr inbounds nuw i8, ptr %16, i64 8
  %18 = call noundef i64 @_ZNK4llvm18DWARFDataExtractor17getRelocatedValueEjPmS1_PNS_5ErrorE(ptr noundef nonnull align 8 dereferenceable(40) %17, i32 noundef %..i, ptr noundef nonnull %3, ptr noundef null, ptr noundef null) #27
  ret i64 %18
}